target datalayout = "e-m:e-p270:32:32-p271:32:32-p272:64:64-i64:64-i128:128-f80:128-n8:16:32:64-S128"
target triple = "x86_64-unknown-linux-gnu"

%"class.hermes::parser::JSLexer" = type { ptr, ptr, i32, %"class.std::unique_ptr", ptr, ptr, i8, i8, i8, i8, [4 x i8], %"class.hermes::parser::Token", %"class.llvh::SMLoc", ptr, ptr, ptr, i8, %"class.llvh::SmallString", %"class.llvh::SmallString", [46 x ptr], %"class.std::vector", %"class.std::vector.2" }
%"class.std::unique_ptr" = type { %"struct.std::__uniq_ptr_data" }
%"struct.std::__uniq_ptr_data" = type { %"class.std::__uniq_ptr_impl" }
%"class.std::__uniq_ptr_impl" = type { %"class.std::tuple" }
%"class.std::tuple" = type { %"struct.std::_Tuple_impl" }
%"struct.std::_Tuple_impl" = type { %"struct.std::_Head_base.1" }
%"struct.std::_Head_base.1" = type { ptr }
%"class.hermes::parser::Token" = type <{ i32, [4 x i8], %"class.llvh::SMRange", double, ptr, ptr, ptr, ptr, i8, [7 x i8] }>
%"class.llvh::SMRange" = type { %"class.llvh::SMLoc", %"class.llvh::SMLoc" }
%"class.llvh::SMLoc" = type { ptr }
%"class.llvh::SmallString" = type { %"class.llvh::SmallVector" }
%"class.llvh::SmallVector" = type { %"class.llvh::SmallVectorImpl", %"struct.llvh::SmallVectorStorage" }
%"class.llvh::SmallVectorImpl" = type { %"class.llvh::SmallVectorTemplateBase" }
%"class.llvh::SmallVectorTemplateBase" = type { %"class.llvh::SmallVectorTemplateCommon" }
%"class.llvh::SmallVectorTemplateCommon" = type { %"class.llvh::SmallVectorBase" }
%"class.llvh::SmallVectorBase" = type { ptr, i32, i32 }
%"struct.llvh::SmallVectorStorage" = type { [256 x %"struct.llvh::AlignedCharArrayUnion"] }
%"struct.llvh::AlignedCharArrayUnion" = type { %"struct.llvh::AlignedCharArray" }
%"struct.llvh::AlignedCharArray" = type { [1 x i8] }
%"class.std::vector" = type { %"struct.std::_Vector_base" }
%"struct.std::_Vector_base" = type { %"struct.std::_Vector_base<hermes::parser::StoredComment, std::allocator<hermes::parser::StoredComment>>::_Vector_impl" }
%"struct.std::_Vector_base<hermes::parser::StoredComment, std::allocator<hermes::parser::StoredComment>>::_Vector_impl" = type { %"struct.std::_Vector_base<hermes::parser::StoredComment, std::allocator<hermes::parser::StoredComment>>::_Vector_impl_data" }
%"struct.std::_Vector_base<hermes::parser::StoredComment, std::allocator<hermes::parser::StoredComment>>::_Vector_impl_data" = type { ptr, ptr, ptr }
%"class.std::vector.2" = type { %"struct.std::_Vector_base.3" }
%"struct.std::_Vector_base.3" = type { %"struct.std::_Vector_base<hermes::parser::StoredToken, std::allocator<hermes::parser::StoredToken>>::_Vector_impl" }
%"struct.std::_Vector_base<hermes::parser::StoredToken, std::allocator<hermes::parser::StoredToken>>::_Vector_impl" = type { %"struct.std::_Vector_base<hermes::parser::StoredToken, std::allocator<hermes::parser::StoredToken>>::_Vector_impl_data" }
%"struct.std::_Vector_base<hermes::parser::StoredToken, std::allocator<hermes::parser::StoredToken>>::_Vector_impl_data" = type { ptr, ptr, ptr }
%"class.llvh::StringRef" = type { ptr, i64 }
%class.anon.78 = type { ptr, ptr }

; Function Attrs: mustprogress nounwind uwtable
define linkonce_odr hidden noundef zeroext i1 @_ZN6hermes11isUTF8StartEc(i8 noundef signext %ch) #0 comdat {
entry:
  %ch.addr = alloca i8, align 1
  store i8 %ch, ptr %ch.addr, align 1
  %0 = load i8, ptr %ch.addr, align 1
  %conv = sext i8 %0 to i32
  %and = and i32 %conv, 128
  %cmp = icmp ne i32 %and, 0
  ret i1 %cmp
}

; Function Attrs: mustprogress nounwind uwtable
define linkonce_odr hidden noundef i32 @_ZN6hermes6parser7JSLexer19_decodeUTF8SlowPathERPKc(ptr noundef nonnull align 8 dereferenceable(1128) %this, ptr noundef nonnull align 8 dereferenceable(8) %at) #0 comdat align 2 {
entry:
  %this.addr = alloca ptr, align 8
  %at.addr = alloca ptr, align 8
  %agg.tmp = alloca %class.anon.78, align 8
  store ptr %this, ptr %this.addr, align 8
  store ptr %at, ptr %at.addr, align 8
  %this1 = load ptr, ptr %this.addr, align 8
  %0 = load ptr, ptr %at.addr, align 8
  %1 = getelementptr inbounds %class.anon.78, ptr %agg.tmp, i32 0, i32 0
  store ptr %this1, ptr %1, align 8
  %2 = getelementptr inbounds %class.anon.78, ptr %agg.tmp, i32 0, i32 1
  %3 = load ptr, ptr %at.addr, align 8
  %4 = load ptr, ptr %3, align 8
  store ptr %4, ptr %2, align 8
  %5 = getelementptr inbounds { ptr, ptr }, ptr %agg.tmp, i32 0, i32 0
  %6 = load ptr, ptr %5, align 8
  %7 = getelementptr inbounds { ptr, ptr }, ptr %agg.tmp, i32 0, i32 1
  %8 = load ptr, ptr %7, align 8
  %call = call noundef i32 @_ZN6hermes19_decodeUTF8SlowPathILb0EZNS_6parser7JSLexer19_decodeUTF8SlowPathERPKcEUlRKN4llvh5TwineEE_EEjS5_T0_(ptr noundef nonnull align 8 dereferenceable(8) %0, ptr %6, ptr %8)
  ret i32 %call
}

; Function Attrs: mustprogress nounwind uwtable
define internal noundef zeroext i1 @_ZN6hermes6parser12_GLOBAL__N_133matchUnicodeLineTerminatorOffset1EPKc(ptr noundef %curCharPtr_) #0 {
entry:
  %curCharPtr_.addr = alloca ptr, align 8
  store ptr %curCharPtr_, ptr %curCharPtr_.addr, align 8
  %0 = load ptr, ptr %curCharPtr_.addr, align 8
  %arrayidx = getelementptr inbounds i8, ptr %0, i64 1
  %1 = load i8, ptr %arrayidx, align 1
  %conv = zext i8 %1 to i32
  %cmp = icmp eq i32 %conv, 128
  br i1 %cmp, label %land.rhs, label %land.end

land.rhs:                                         ; preds = %entry
  %2 = load ptr, ptr %curCharPtr_.addr, align 8
  %arrayidx1 = getelementptr inbounds i8, ptr %2, i64 2
  %3 = load i8, ptr %arrayidx1, align 1
  %conv2 = zext i8 %3 to i32
  %cmp3 = icmp eq i32 %conv2, 168
  br i1 %cmp3, label %lor.end, label %lor.rhs

lor.rhs:                                          ; preds = %land.rhs
  %4 = load ptr, ptr %curCharPtr_.addr, align 8
  %arrayidx4 = getelementptr inbounds i8, ptr %4, i64 2
  %5 = load i8, ptr %arrayidx4, align 1
  %conv5 = zext i8 %5 to i32
  %cmp6 = icmp eq i32 %conv5, 169
  br label %lor.end

lor.end:                                          ; preds = %lor.rhs, %land.rhs
  %6 = phi i1 [ true, %land.rhs ], [ %cmp6, %lor.rhs ]
  br label %land.end

land.end:                                         ; preds = %lor.end, %entry
  %7 = phi i1 [ false, %entry ], [ %6, %lor.end ]
  ret i1 %7
}

; Function Attrs: mustprogress nounwind uwtable
define hidden { ptr, i64 } @_ZN6hermes6parser7JSLexer17lineCommentHelperEPKc(ptr noundef nonnull align 8 dereferenceable(1128) %this, ptr noundef %start) #0 align 2 {
entry:
  %this.addr.i = alloca ptr, align 8
  %data.addr.i = alloca ptr, align 8
  %length.addr.i = alloca i64, align 8
  %retval = alloca %"class.llvh::StringRef", align 8
  %this.addr = alloca ptr, align 8
  %start.addr = alloca ptr, align 8
  %lineCommentEnd = alloca ptr, align 8
  %cur = alloca ptr, align 8
  store ptr %this, ptr %this.addr, align 8
  store ptr %start, ptr %start.addr, align 8
  %this1 = load ptr, ptr %this.addr, align 8
  %0 = load ptr, ptr %start.addr, align 8
  %add.ptr = getelementptr inbounds i8, ptr %0, i64 2
  store ptr %add.ptr, ptr %cur, align 8
  br label %for.cond

for.cond:                                         ; preds = %sw.epilog, %entry
  %1 = load ptr, ptr %cur, align 8
  %2 = load i8, ptr %1, align 1
  %conv = zext i8 %2 to i32
  switch i32 %conv, label %sw.default [
    i32 0, label %sw.bb
    i32 13, label %sw.bb2
    i32 10, label %sw.bb2
    i32 226, label %sw.bb4
  ]

sw.bb:                                            ; preds = %for.cond
  %3 = load ptr, ptr %cur, align 8
  %bufferEnd_ = getelementptr inbounds %"class.hermes::parser::JSLexer", ptr %this1, i32 0, i32 15
  %4 = load ptr, ptr %bufferEnd_, align 8
  %cmp = icmp eq ptr %3, %4
  br i1 %cmp, label %if.then, label %if.else

if.then:                                          ; preds = %sw.bb
  %5 = load ptr, ptr %cur, align 8
  store ptr %5, ptr %lineCommentEnd, align 8
  br label %endLoop

if.else:                                          ; preds = %sw.bb
  %6 = load ptr, ptr %cur, align 8
  %incdec.ptr = getelementptr inbounds i8, ptr %6, i32 1
  store ptr %incdec.ptr, ptr %cur, align 8
  br label %if.end

if.end:                                           ; preds = %if.else
  br label %sw.epilog

sw.bb2:                                           ; preds = %for.cond, %for.cond
  %7 = load ptr, ptr %cur, align 8
  store ptr %7, ptr %lineCommentEnd, align 8
  %8 = load ptr, ptr %cur, align 8
  %incdec.ptr3 = getelementptr inbounds i8, ptr %8, i32 1
  store ptr %incdec.ptr3, ptr %cur, align 8
  %newLineBeforeCurrentToken_ = getelementptr inbounds %"class.hermes::parser::JSLexer", ptr %this1, i32 0, i32 16
  store i8 1, ptr %newLineBeforeCurrentToken_, align 8
  br label %endLoop

sw.bb4:                                           ; preds = %for.cond
  %9 = load ptr, ptr %cur, align 8
  %call = call noundef zeroext i1 @_ZN6hermes6parser12_GLOBAL__N_133matchUnicodeLineTerminatorOffset1EPKc(ptr noundef %9)
  br i1 %call, label %if.then5, label %if.else8

if.then5:                                         ; preds = %sw.bb4
  %10 = load ptr, ptr %cur, align 8
  store ptr %10, ptr %lineCommentEnd, align 8
  %11 = load ptr, ptr %cur, align 8
  %add.ptr6 = getelementptr inbounds i8, ptr %11, i64 3
  store ptr %add.ptr6, ptr %cur, align 8
  %newLineBeforeCurrentToken_7 = getelementptr inbounds %"class.hermes::parser::JSLexer", ptr %this1, i32 0, i32 16
  store i8 1, ptr %newLineBeforeCurrentToken_7, align 8
  br label %endLoop

if.else8:                                         ; preds = %sw.bb4
  %call9 = call noundef i32 @_ZN6hermes6parser7JSLexer19_decodeUTF8SlowPathERPKc(ptr noundef nonnull align 8 dereferenceable(1128) %this1, ptr noundef nonnull align 8 dereferenceable(8) %cur)
  br label %if.end10

if.end10:                                         ; preds = %if.else8
  br label %sw.epilog

sw.default:                                       ; preds = %for.cond
  %12 = load ptr, ptr %cur, align 8
  %13 = load i8, ptr %12, align 1
  %call11 = call noundef zeroext i1 @_ZN6hermes11isUTF8StartEc(i8 noundef signext %13)
  br i1 %call11, label %if.then13, label %if.else15

if.then13:                                        ; preds = %sw.default
  %call14 = call noundef i32 @_ZN6hermes6parser7JSLexer19_decodeUTF8SlowPathERPKc(ptr noundef nonnull align 8 dereferenceable(1128) %this1, ptr noundef nonnull align 8 dereferenceable(8) %cur)
  br label %if.end17

if.else15:                                        ; preds = %sw.default
  %14 = load ptr, ptr %cur, align 8
  %incdec.ptr16 = getelementptr inbounds i8, ptr %14, i32 1
  store ptr %incdec.ptr16, ptr %cur, align 8
  br label %if.end17

if.end17:                                         ; preds = %if.else15, %if.then13
  br label %sw.epilog

sw.epilog:                                        ; preds = %if.end17, %if.end10, %if.end
  br label %for.cond, !llvm.loop !26

endLoop:                                          ; preds = %if.then5, %sw.bb2, %if.then
  %15 = load ptr, ptr %cur, align 8
  %curCharPtr_ = getelementptr inbounds %"class.hermes::parser::JSLexer", ptr %this1, i32 0, i32 14
  store ptr %15, ptr %curCharPtr_, align 8
  %16 = load ptr, ptr %start.addr, align 8
  %17 = load ptr, ptr %lineCommentEnd, align 8
  %18 = load ptr, ptr %start.addr, align 8
  %sub.ptr.lhs.cast = ptrtoint ptr %17 to i64
  %sub.ptr.rhs.cast = ptrtoint ptr %18 to i64
  %sub.ptr.sub = sub i64 %sub.ptr.lhs.cast, %sub.ptr.rhs.cast
  store ptr %retval, ptr %this.addr.i, align 8
  store ptr %16, ptr %data.addr.i, align 8
  store i64 %sub.ptr.sub, ptr %length.addr.i, align 8
  %this1.i = load ptr, ptr %this.addr.i, align 8
  %19 = load ptr, ptr %data.addr.i, align 8
  store ptr %19, ptr %this1.i, align 8
  %Length.i = getelementptr inbounds %"class.llvh::StringRef", ptr %this1.i, i32 0, i32 1
  %20 = load i64, ptr %length.addr.i, align 8
  store i64 %20, ptr %Length.i, align 8
  %21 = load { ptr, i64 }, ptr %retval, align 8
  ret { ptr, i64 } %21
}