; Function Attrs: mustprogress nounwind uwtable
define hidden { ptr, i64 } @_ZN6hermes6parser7JSLexer17lineCommentHelperEPKc(ptr noundef nonnull align 8 dereferenceable(1128) %this, ptr noundef %start) local_unnamed_addr #1 align 2 {
entry:
  %cur = alloca ptr, align 8
  %add.ptr = getelementptr inbounds nuw i8, ptr %start, i64 2
  store ptr %add.ptr, ptr %cur, align 8
  %bufferEnd_ = getelementptr inbounds nuw i8, ptr %this, i64 152
  br label %for.cond

for.cond:                                         ; preds = %sw.epilog, %entry
  %0 = phi ptr [ %.pre, %sw.epilog ], [ %add.ptr, %entry ]
  %1 = load i8, ptr %0, align 1
  switch i8 %1, label %sw.default [
    i8 0, label %sw.bb
    i8 13, label %endLoop.sink.split
    i8 10, label %endLoop.sink.split
    i8 -30, label %sw.bb4
  ]

sw.bb:                                            ; preds = %for.cond
  %2 = load ptr, ptr %bufferEnd_, align 8
  %cmp = icmp eq ptr %0, %2
  br i1 %cmp, label %endLoop, label %if.else

if.else:                                          ; preds = %sw.bb
  %incdec.ptr = getelementptr inbounds nuw i8, ptr %0, i64 1
  store ptr %incdec.ptr, ptr %cur, align 8
  br label %sw.epilog

sw.bb4:                                           ; preds = %for.cond
  %arrayidx.i = getelementptr inbounds nuw i8, ptr %0, i64 1
  %3 = load i8, ptr %arrayidx.i, align 1
  %cmp.i = icmp eq i8 %3, -128
  br i1 %cmp.i, label %_ZN6hermes6parser12_GLOBAL__N_133matchUnicodeLineTerminatorOffset1EPKc.exit, label %if.else8

_ZN6hermes6parser12_GLOBAL__N_133matchUnicodeLineTerminatorOffset1EPKc.exit: ; preds = %sw.bb4
  %arrayidx1.i = getelementptr inbounds nuw i8, ptr %0, i64 2
  %4 = load i8, ptr %arrayidx1.i, align 1
  %5 = and i8 %4, -2
  %spec.select.i = icmp eq i8 %5, -88
  br i1 %spec.select.i, label %endLoop.sink.split, label %if.else8

if.else8:                                         ; preds = %sw.bb4, %_ZN6hermes6parser12_GLOBAL__N_133matchUnicodeLineTerminatorOffset1EPKc.exit
  %call.i = call noundef i32 @_ZN6hermes19_decodeUTF8SlowPathILb0EZNS_6parser7JSLexer19_decodeUTF8SlowPathERPKcEUlRKN4llvh5TwineEE_EEjS5_T0_(ptr noundef nonnull align 8 dereferenceable(8) %cur, ptr nonnull align 8 dereferenceable(1128) %this, ptr nonnull %0)
  br label %sw.epilog

sw.default:                                       ; preds = %for.cond
  %cmp.i3 = icmp slt i8 %1, 0
  br i1 %cmp.i3, label %if.then13, label %if.else15

if.then13:                                        ; preds = %sw.default
  %call.i4 = call noundef i32 @_ZN6hermes19_decodeUTF8SlowPathILb0EZNS_6parser7JSLexer19_decodeUTF8SlowPathERPKcEUlRKN4llvh5TwineEE_EEjS5_T0_(ptr noundef nonnull align 8 dereferenceable(8) %cur, ptr nonnull align 8 dereferenceable(1128) %this, ptr nonnull %0)
  br label %sw.epilog

if.else15:                                        ; preds = %sw.default
  %incdec.ptr16 = getelementptr inbounds nuw i8, ptr %0, i64 1
  store ptr %incdec.ptr16, ptr %cur, align 8
  br label %sw.epilog

sw.epilog:                                        ; preds = %if.then13, %if.else15, %if.else8, %if.else
  %.pre = load ptr, ptr %cur, align 8
  br label %for.cond, !llvm.loop !32

endLoop.sink.split:                               ; preds = %_ZN6hermes6parser12_GLOBAL__N_133matchUnicodeLineTerminatorOffset1EPKc.exit, %for.cond, %for.cond
  %.sink = phi i64 [ 1, %for.cond ], [ 1, %for.cond ], [ 3, %_ZN6hermes6parser12_GLOBAL__N_133matchUnicodeLineTerminatorOffset1EPKc.exit ]
  %incdec.ptr3 = getelementptr inbounds nuw i8, ptr %0, i64 %.sink
  %newLineBeforeCurrentToken_7 = getelementptr inbounds nuw i8, ptr %this, i64 160
  store i8 1, ptr %newLineBeforeCurrentToken_7, align 8
  br label %endLoop

endLoop:                                          ; preds = %sw.bb, %endLoop.sink.split
  %6 = phi ptr [ %incdec.ptr3, %endLoop.sink.split ], [ %0, %sw.bb ]
  %curCharPtr_ = getelementptr inbounds nuw i8, ptr %this, i64 144
  store ptr %6, ptr %curCharPtr_, align 8
  %sub.ptr.lhs.cast = ptrtoint ptr %0 to i64
  %sub.ptr.rhs.cast = ptrtoint ptr %start to i64
  %sub.ptr.sub = sub i64 %sub.ptr.lhs.cast, %sub.ptr.rhs.cast
  %.fca.0.insert = insertvalue { ptr, i64 } poison, ptr %start, 0
  %.fca.1.insert = insertvalue { ptr, i64 } %.fca.0.insert, i64 %sub.ptr.sub, 1
  ret { ptr, i64 } %.fca.1.insert
}